target datalayout = "e-m:e-p270:32:32-p271:32:32-p272:64:64-i64:64-i128:128-f80:128-n8:16:32:64-S128"
target triple = "x86_64-pc-linux-gnu"

%class.cmCTestRunTest = type { ptr, i32, ptr, ptr, ptr, %"class.std::unique_ptr", %"class.std::__cxx11::basic_string", %"struct.cmCTestTestHandler::cmCTestTestResult", %"class.std::set", %"class.std::__cxx11::basic_string", %"class.std::__cxx11::basic_string", %"class.std::vector", i8, %"class.std::vector.8", i32, i32, i32, i8, i64, %class.cmInstrumentation }
%"class.std::unique_ptr" = type { %"struct.std::__uniq_ptr_data" }
%"struct.std::__uniq_ptr_data" = type { %"class.std::__uniq_ptr_impl" }
%"class.std::__uniq_ptr_impl" = type { %"class.std::tuple" }
%"class.std::tuple" = type { %"struct.std::_Tuple_impl" }
%"struct.std::_Tuple_impl" = type { %"struct.std::_Head_base.1" }
%"struct.std::_Head_base.1" = type { ptr }
%"struct.cmCTestTestHandler::cmCTestTestResult" = type { %"class.std::__cxx11::basic_string", %"class.std::__cxx11::basic_string", %"class.std::__cxx11::basic_string", %"class.std::__cxx11::basic_string", %"class.std::__cxx11::basic_string", %"class.std::chrono::duration", i64, i32, %"class.std::__cxx11::basic_string", i8, %"class.std::__cxx11::basic_string", %"class.std::__cxx11::basic_string", %"class.std::__cxx11::basic_string", %"class.std::__cxx11::basic_string", i32, ptr }
%"class.std::chrono::duration" = type { double }
%"class.std::set" = type { %"class.std::_Rb_tree" }
%"class.std::_Rb_tree" = type { %"struct.std::_Rb_tree<std::__cxx11::basic_string<char>, std::__cxx11::basic_string<char>, std::_Identity<std::__cxx11::basic_string<char>>, std::less<std::__cxx11::basic_string<char>>>::_Rb_tree_impl" }
%"struct.std::_Rb_tree<std::__cxx11::basic_string<char>, std::__cxx11::basic_string<char>, std::_Identity<std::__cxx11::basic_string<char>>, std::less<std::__cxx11::basic_string<char>>>::_Rb_tree_impl" = type { [8 x i8], %"struct.std::_Rb_tree_header" }
%"struct.std::_Rb_tree_header" = type { %"struct.std::_Rb_tree_node_base", i64 }
%"struct.std::_Rb_tree_node_base" = type { i32, ptr, ptr, ptr }
%"class.std::__cxx11::basic_string" = type { %"struct.std::__cxx11::basic_string<char>::_Alloc_hider", i64, %union.anon }
%"struct.std::__cxx11::basic_string<char>::_Alloc_hider" = type { ptr }
%union.anon = type { i64, [8 x i8] }
%"class.std::vector" = type { %"struct.std::_Vector_base" }
%"struct.std::_Vector_base" = type { %"struct.std::_Vector_base<std::__cxx11::basic_string<char>, std::allocator<std::__cxx11::basic_string<char>>>::_Vector_impl" }
%"struct.std::_Vector_base<std::__cxx11::basic_string<char>, std::allocator<std::__cxx11::basic_string<char>>>::_Vector_impl" = type { %"struct.std::_Vector_base<std::__cxx11::basic_string<char>, std::allocator<std::__cxx11::basic_string<char>>>::_Vector_impl_data" }
%"struct.std::_Vector_base<std::__cxx11::basic_string<char>, std::allocator<std::__cxx11::basic_string<char>>>::_Vector_impl_data" = type { ptr, ptr, ptr }
%"class.std::vector.8" = type { %"struct.std::_Vector_base.9" }
%"struct.std::_Vector_base.9" = type { %"struct.std::_Vector_base<std::map<std::__cxx11::basic_string<char>, std::vector<cmCTestMultiProcessHandler::ResourceAllocation>>, std::allocator<std::map<std::__cxx11::basic_string<char>, std::vector<cmCTestMultiProcessHandler::ResourceAllocation>>>>::_Vector_impl" }
%"struct.std::_Vector_base<std::map<std::__cxx11::basic_string<char>, std::vector<cmCTestMultiProcessHandler::ResourceAllocation>>, std::allocator<std::map<std::__cxx11::basic_string<char>, std::vector<cmCTestMultiProcessHandler::ResourceAllocation>>>>::_Vector_impl" = type { %"struct.std::_Vector_base<std::map<std::__cxx11::basic_string<char>, std::vector<cmCTestMultiProcessHandler::ResourceAllocation>>, std::allocator<std::map<std::__cxx11::basic_string<char>, std::vector<cmCTestMultiProcessHandler::ResourceAllocation>>>>::_Vector_impl_data" }
%"struct.std::_Vector_base<std::map<std::__cxx11::basic_string<char>, std::vector<cmCTestMultiProcessHandler::ResourceAllocation>>, std::allocator<std::map<std::__cxx11::basic_string<char>, std::vector<cmCTestMultiProcessHandler::ResourceAllocation>>>>::_Vector_impl_data" = type { ptr, ptr, ptr }
%class.cmInstrumentation = type <{ %"class.std::__cxx11::basic_string", %"class.std::__cxx11::basic_string", %"class.std::__cxx11::basic_string", %"class.std::__cxx11::basic_string", %"class.std::set.13", %"class.std::set.19", %"class.std::vector", %"class.std::vector", %"class.Json::Value", i8, [7 x i8] }>
%"class.std::set.13" = type { %"class.std::_Rb_tree.14" }
%"class.std::_Rb_tree.14" = type { %"struct.std::_Rb_tree<cmInstrumentationQuery::Query, cmInstrumentationQuery::Query, std::_Identity<cmInstrumentationQuery::Query>, std::less<cmInstrumentationQuery::Query>>::_Rb_tree_impl" }
%"struct.std::_Rb_tree<cmInstrumentationQuery::Query, cmInstrumentationQuery::Query, std::_Identity<cmInstrumentationQuery::Query>, std::less<cmInstrumentationQuery::Query>>::_Rb_tree_impl" = type { [8 x i8], %"struct.std::_Rb_tree_header" }
%"class.std::set.19" = type { %"class.std::_Rb_tree.20" }
%"class.std::_Rb_tree.20" = type { %"struct.std::_Rb_tree<cmInstrumentationQuery::Hook, cmInstrumentationQuery::Hook, std::_Identity<cmInstrumentationQuery::Hook>, std::less<cmInstrumentationQuery::Hook>>::_Rb_tree_impl" }
%"struct.std::_Rb_tree<cmInstrumentationQuery::Hook, cmInstrumentationQuery::Hook, std::_Identity<cmInstrumentationQuery::Hook>, std::less<cmInstrumentationQuery::Hook>>::_Rb_tree_impl" = type { [8 x i8], %"struct.std::_Rb_tree_header" }
%"class.Json::Value" = type { %"union.Json::Value::ValueHolder", %struct.anon, %"class.Json::Value::Comments", i64, i64 }
%"union.Json::Value::ValueHolder" = type { i64 }
%struct.anon = type { i16, [2 x i8] }
%"class.Json::Value::Comments" = type { %"class.std::unique_ptr.25" }
%"class.std::unique_ptr.25" = type { %"struct.std::__uniq_ptr_data.26" }
%"struct.std::__uniq_ptr_data.26" = type { %"class.std::__uniq_ptr_impl.27" }
%"class.std::__uniq_ptr_impl.27" = type { %"class.std::tuple.28" }
%"class.std::tuple.28" = type { %"struct.std::_Tuple_impl.29" }
%"struct.std::_Tuple_impl.29" = type { %"struct.std::_Head_base.32" }
%"struct.std::_Head_base.32" = type { ptr }
%"class.std::__shared_count" = type { ptr }
%"class.std::map.121" = type { %"class.std::_Rb_tree.122" }
%"class.std::_Rb_tree.122" = type { %"struct.std::_Rb_tree<std::__cxx11::basic_string<char>, std::pair<const std::__cxx11::basic_string<char>, std::__cxx11::basic_string<char>>, std::_Select1st<std::pair<const std::__cxx11::basic_string<char>, std::__cxx11::basic_string<char>>>, std::less<std::__cxx11::basic_string<char>>>::_Rb_tree_impl" }
%"struct.std::_Rb_tree<std::__cxx11::basic_string<char>, std::pair<const std::__cxx11::basic_string<char>, std::__cxx11::basic_string<char>>, std::_Select1st<std::pair<const std::__cxx11::basic_string<char>, std::__cxx11::basic_string<char>>>, std::less<std::__cxx11::basic_string<char>>>::_Rb_tree_impl" = type { [8 x i8], %"struct.std::_Rb_tree_header" }
%"class.std::optional.152" = type { %"struct.std::_Optional_base.153" }
%"struct.std::_Optional_base.153" = type { %"struct.std::_Optional_payload.155" }
%"struct.std::_Optional_payload.155" = type { %"struct.std::_Optional_payload.base.159", [7 x i8] }
%"struct.std::_Optional_payload.base.159" = type { %"struct.std::_Optional_payload_base.base.158" }
%"struct.std::_Optional_payload_base.base.158" = type <{ %"union.std::_Optional_payload_base<std::__cxx11::basic_string<char>>::_Storage", i8 }>
%"union.std::_Optional_payload_base<std::__cxx11::basic_string<char>>::_Storage" = type { %"class.std::__cxx11::basic_string" }
%"struct.cmCTestTestHandler::cmCTestTestProperties" = type { %"class.std::optional.152", %"class.std::__cxx11::basic_string", %"class.std::__cxx11::basic_string", %"class.std::vector", %"class.std::vector", %"class.std::vector", %"class.std::vector", %"class.std::vector", %"class.std::vector.167", %"class.std::vector.167", %"class.std::vector.167", %"class.std::vector.167", %"class.std::map.121", %"class.std::map.121", i8, i8, i8, float, i32, i8, [3 x i8], %"class.std::optional.172", %"class.std::optional.180", %"class.std::optional.172", %"class.std::chrono::duration", i32, i32, i8, %"class.std::vector.190", i32, %"class.std::vector", %"class.std::vector", %"class.std::vector", %"class.std::set", %"class.std::set", %"class.std::set", %"class.std::set", %"class.std::set", %"class.std::vector.195", %"class.std::__cxx11::basic_string", %class.cmListFileBacktrace }
%"class.std::vector.167" = type { %"struct.std::_Vector_base.168" }
%"struct.std::_Vector_base.168" = type { %"struct.std::_Vector_base<std::pair<cmsys::RegularExpression, std::__cxx11::basic_string<char>>, std::allocator<std::pair<cmsys::RegularExpression, std::__cxx11::basic_string<char>>>>::_Vector_impl" }
%"struct.std::_Vector_base<std::pair<cmsys::RegularExpression, std::__cxx11::basic_string<char>>, std::allocator<std::pair<cmsys::RegularExpression, std::__cxx11::basic_string<char>>>>::_Vector_impl" = type { %"struct.std::_Vector_base<std::pair<cmsys::RegularExpression, std::__cxx11::basic_string<char>>, std::allocator<std::pair<cmsys::RegularExpression, std::__cxx11::basic_string<char>>>>::_Vector_impl_data" }
%"struct.std::_Vector_base<std::pair<cmsys::RegularExpression, std::__cxx11::basic_string<char>>, std::allocator<std::pair<cmsys::RegularExpression, std::__cxx11::basic_string<char>>>>::_Vector_impl_data" = type { ptr, ptr, ptr }
%"class.std::optional.180" = type { %"struct.std::_Optional_base.181" }
%"struct.std::_Optional_base.181" = type { %"struct.std::_Optional_payload.183" }
%"struct.std::_Optional_payload.183" = type { %"struct.std::_Optional_payload.base.187", [7 x i8] }
%"struct.std::_Optional_payload.base.187" = type { %"struct.std::_Optional_payload_base.base.186" }
%"struct.std::_Optional_payload_base.base.186" = type <{ %"union.std::_Optional_payload_base<cmCTestTestHandler::Signal>::_Storage", i8 }>
%"union.std::_Optional_payload_base<cmCTestTestHandler::Signal>::_Storage" = type { %"struct.cmCTestTestHandler::Signal" }
%"struct.cmCTestTestHandler::Signal" = type { i32, %"class.std::__cxx11::basic_string" }
%"class.std::optional.172" = type { %"struct.std::_Optional_base.173" }
%"struct.std::_Optional_base.173" = type { %"struct.std::_Optional_payload.175" }
%"struct.std::_Optional_payload.175" = type { %"struct.std::_Optional_payload_base.base.177", [7 x i8] }
%"struct.std::_Optional_payload_base.base.177" = type <{ %"union.std::_Optional_payload_base<std::chrono::duration<double>>::_Storage", i8 }>
%"union.std::_Optional_payload_base<std::chrono::duration<double>>::_Storage" = type { %"class.std::chrono::duration" }
%"class.std::vector.190" = type { %"struct.std::_Vector_base.191" }
%"struct.std::_Vector_base.191" = type { %"struct.std::_Vector_base<unsigned long, std::allocator<unsigned long>>::_Vector_impl" }
%"struct.std::_Vector_base<unsigned long, std::allocator<unsigned long>>::_Vector_impl" = type { %"struct.std::_Vector_base<unsigned long, std::allocator<unsigned long>>::_Vector_impl_data" }
%"struct.std::_Vector_base<unsigned long, std::allocator<unsigned long>>::_Vector_impl_data" = type { ptr, ptr, ptr }
%"class.std::vector.195" = type { %"struct.std::_Vector_base.196" }
%"struct.std::_Vector_base.196" = type { %"struct.std::_Vector_base<std::vector<cmCTestTestHandler::cmCTestTestResourceRequirement>, std::allocator<std::vector<cmCTestTestHandler::cmCTestTestResourceRequirement>>>::_Vector_impl" }
%"struct.std::_Vector_base<std::vector<cmCTestTestHandler::cmCTestTestResourceRequirement>, std::allocator<std::vector<cmCTestTestHandler::cmCTestTestResourceRequirement>>>::_Vector_impl" = type { %"struct.std::_Vector_base<std::vector<cmCTestTestHandler::cmCTestTestResourceRequirement>, std::allocator<std::vector<cmCTestTestHandler::cmCTestTestResourceRequirement>>>::_Vector_impl_data" }
%"struct.std::_Vector_base<std::vector<cmCTestTestHandler::cmCTestTestResourceRequirement>, std::allocator<std::vector<cmCTestTestHandler::cmCTestTestResourceRequirement>>>::_Vector_impl_data" = type { ptr, ptr, ptr }
%class.cmListFileBacktrace = type { %class.cmConstStack }
%class.cmConstStack = type { %"class.std::shared_ptr.200" }
%"class.std::shared_ptr.200" = type { %"class.std::__shared_ptr.201" }
%"class.std::__shared_ptr.201" = type { ptr, %"class.std::__shared_count" }

; Function Attrs: mustprogress nounwind uwtable
define linkonce_odr dso_local noundef double @_ZNKSt6chrono8durationIdSt5ratioILl1ELl1EEE5countEv(ptr noundef nonnull align 8 dereferenceable(8) %0) #5 comdat align 2 {
  %2 = alloca ptr, align 8
  store ptr %0, ptr %2, align 8, !tbaa !222
  %3 = load ptr, ptr %2, align 8
  %4 = getelementptr inbounds nuw %"class.std::chrono::duration", ptr %3, i32 0, i32 0
  %5 = load double, ptr %4, align 8, !tbaa !356
  ret double %5
}

; Function Attrs: mustprogress uwtable
define dso_local void @_ZN14cmCTestRunTest19ComputeWeightedCostEv(ptr noundef nonnull align 8 dereferenceable(960) %0) #4 align 2 {
  %2 = alloca ptr, align 8
  %3 = alloca double, align 8
  %4 = alloca double, align 8
  %5 = alloca double, align 8
  store ptr %0, ptr %2, align 8, !tbaa !4
  %6 = load ptr, ptr %2, align 8
  call void @llvm.lifetime.start.p0(i64 8, ptr %3) #3
  %7 = getelementptr inbounds nuw %class.cmCTestRunTest, ptr %6, i32 0, i32 4
  %8 = load ptr, ptr %7, align 8, !tbaa !160
  %9 = getelementptr inbounds nuw %"struct.cmCTestTestHandler::cmCTestTestProperties", ptr %8, i32 0, i32 18
  %10 = load i32, ptr %9, align 8, !tbaa !374
  %11 = sitofp i32 %10 to double
  store double %11, ptr %3, align 8, !tbaa !201
  call void @llvm.lifetime.start.p0(i64 8, ptr %4) #3
  %12 = getelementptr inbounds nuw %class.cmCTestRunTest, ptr %6, i32 0, i32 4
  %13 = load ptr, ptr %12, align 8, !tbaa !160
  %14 = getelementptr inbounds nuw %"struct.cmCTestTestHandler::cmCTestTestProperties", ptr %13, i32 0, i32 17
  %15 = load float, ptr %14, align 4, !tbaa !375
  %16 = fpext float %15 to double
  store double %16, ptr %4, align 8, !tbaa !201
  call void @llvm.lifetime.start.p0(i64 8, ptr %5) #3
  %17 = getelementptr inbounds nuw %class.cmCTestRunTest, ptr %6, i32 0, i32 7
  %18 = getelementptr inbounds nuw %"struct.cmCTestTestHandler::cmCTestTestResult", ptr %17, i32 0, i32 5
  %19 = call noundef double @_ZNKSt6chrono8durationIdSt5ratioILl1ELl1EEE5countEv(ptr noundef nonnull align 8 dereferenceable(8) %18)
  store double %19, ptr %5, align 8, !tbaa !201
  %20 = getelementptr inbounds nuw %class.cmCTestRunTest, ptr %6, i32 0, i32 7
  %21 = getelementptr inbounds nuw %"struct.cmCTestTestHandler::cmCTestTestResult", ptr %20, i32 0, i32 7
  %22 = load i32, ptr %21, align 8, !tbaa !270
  %23 = icmp eq i32 %22, 9
  br i1 %23, label %24, label %41

24:                                               ; preds = %1
  %25 = load double, ptr %3, align 8, !tbaa !201
  %26 = load double, ptr %4, align 8, !tbaa !201
  %27 = load double, ptr %5, align 8, !tbaa !201
  %28 = call double @llvm.fmuladd.f64(double %25, double %26, double %27)
  %29 = load double, ptr %3, align 8, !tbaa !201
  %30 = fadd double %29, 1.000000e+00
  %31 = fdiv double %28, %30
  %32 = fptrunc double %31 to float
  %33 = getelementptr inbounds nuw %class.cmCTestRunTest, ptr %6, i32 0, i32 4
  %34 = load ptr, ptr %33, align 8, !tbaa !160
  %35 = getelementptr inbounds nuw %"struct.cmCTestTestHandler::cmCTestTestProperties", ptr %34, i32 0, i32 17
  store float %32, ptr %35, align 4, !tbaa !375
  %36 = getelementptr inbounds nuw %class.cmCTestRunTest, ptr %6, i32 0, i32 4
  %37 = load ptr, ptr %36, align 8, !tbaa !160
  %38 = getelementptr inbounds nuw %"struct.cmCTestTestHandler::cmCTestTestProperties", ptr %37, i32 0, i32 18
  %39 = load i32, ptr %38, align 8, !tbaa !374
  %40 = add nsw i32 %39, 1
  store i32 %40, ptr %38, align 8, !tbaa !374
  br label %41

41:                                               ; preds = %24, %1
  call void @llvm.lifetime.end.p0(i64 8, ptr %5) #3
  call void @llvm.lifetime.end.p0(i64 8, ptr %4) #3
  call void @llvm.lifetime.end.p0(i64 8, ptr %3) #3
  ret void
}