; Function Attrs: mustprogress nofree norecurse nosync nounwind willreturn memory(readwrite, inaccessiblemem: none) uwtable
define dso_local void @_ZN14cmCTestRunTest19ComputeWeightedCostEv(ptr noundef nonnull readonly align 8 captures(none) dereferenceable(960) %0) local_unnamed_addr #9 align 2 {
  %2 = getelementptr inbounds nuw i8, ptr %0, i64 256
  %3 = load i32, ptr %2, align 8, !tbaa !392
  %4 = icmp eq i32 %3, 9
  br i1 %4, label %5, label %21

5:                                                ; preds = %1
  %6 = getelementptr inbounds nuw i8, ptr %0, i64 240
  %7 = load double, ptr %6, align 8, !tbaa !256
  %8 = getelementptr inbounds nuw i8, ptr %0, i64 32
  %9 = load ptr, ptr %8, align 8, !tbaa !156
  %10 = getelementptr inbounds nuw i8, ptr %9, i64 420
  %11 = load float, ptr %10, align 4, !tbaa !511
  %12 = getelementptr inbounds nuw i8, ptr %9, i64 424
  %13 = load i32, ptr %12, align 8, !tbaa !512
  %14 = fpext float %11 to double
  %15 = sitofp i32 %13 to double
  %16 = tail call double @llvm.fmuladd.f64(double %15, double %14, double %7)
  %17 = fadd double %15, 1.000000e+00
  %18 = fdiv double %16, %17
  %19 = fptrunc double %18 to float
  store float %19, ptr %10, align 4, !tbaa !511
  %20 = add nsw i32 %13, 1
  store i32 %20, ptr %12, align 8, !tbaa !512
  br label %21

21:                                               ; preds = %5, %1
  ret void
}